target datalayout = "e-m:e-p270:32:32-p271:32:32-p272:64:64-i64:64-i128:128-f80:128-n8:16:32:64-S128"
target triple = "x86_64-pc-linux-gnu"

%union.pthread_attr_t = type { i64, [48 x i8] }
%struct.opj_thread_t = type { ptr, ptr, i64 }

; Function Attrs: nounwind uwtable
define hidden ptr @opj_thread_create(ptr noundef %0, ptr noundef %1) #0 {
  %3 = alloca ptr, align 8
  %4 = alloca ptr, align 8
  %5 = alloca ptr, align 8
  %6 = alloca %union.pthread_attr_t, align 8
  %7 = alloca ptr, align 8
  %8 = alloca i32, align 4
  store ptr %0, ptr %4, align 8, !tbaa !12
  store ptr %1, ptr %5, align 8, !tbaa !12
  call void @llvm.lifetime.start.p0(i64 56, ptr %6) #4
  call void @llvm.lifetime.start.p0(i64 8, ptr %7) #4
  %9 = call ptr @opj_malloc(i64 noundef 24)
  store ptr %9, ptr %7, align 8, !tbaa !13
  %10 = load ptr, ptr %7, align 8, !tbaa !13
  %11 = icmp ne ptr %10, null
  br i1 %11, label %13, label %12

12:                                               ; preds = %2
  store ptr null, ptr %3, align 8
  store i32 1, ptr %8, align 4
  br label %31

13:                                               ; preds = %2
  %14 = load ptr, ptr %4, align 8, !tbaa !12
  %15 = load ptr, ptr %7, align 8, !tbaa !13
  %16 = getelementptr inbounds nuw %struct.opj_thread_t, ptr %15, i32 0, i32 0
  store ptr %14, ptr %16, align 8, !tbaa !15
  %17 = load ptr, ptr %5, align 8, !tbaa !12
  %18 = load ptr, ptr %7, align 8, !tbaa !13
  %19 = getelementptr inbounds nuw %struct.opj_thread_t, ptr %18, i32 0, i32 1
  store ptr %17, ptr %19, align 8, !tbaa !18
  %20 = call i32 @pthread_attr_init(ptr noundef %6) #4
  %21 = call i32 @pthread_attr_setdetachstate(ptr noundef %6, i32 noundef 0) #4
  %22 = load ptr, ptr %7, align 8, !tbaa !13
  %23 = getelementptr inbounds nuw %struct.opj_thread_t, ptr %22, i32 0, i32 2
  %24 = load ptr, ptr %7, align 8, !tbaa !13
  %25 = call i32 @pthread_create(ptr noundef %23, ptr noundef %6, ptr noundef @opj_thread_callback_adapter, ptr noundef %24) #4
  %26 = icmp ne i32 %25, 0
  br i1 %26, label %27, label %29

27:                                               ; preds = %13
  %28 = load ptr, ptr %7, align 8, !tbaa !13
  call void @opj_free(ptr noundef %28)
  store ptr null, ptr %3, align 8
  store i32 1, ptr %8, align 4
  br label %31

29:                                               ; preds = %13
  %30 = load ptr, ptr %7, align 8, !tbaa !13
  store ptr %30, ptr %3, align 8
  store i32 1, ptr %8, align 4
  br label %31

31:                                               ; preds = %29, %27, %12
  call void @llvm.lifetime.end.p0(i64 8, ptr %7) #4
  call void @llvm.lifetime.end.p0(i64 56, ptr %6) #4
  %32 = load ptr, ptr %3, align 8
  ret ptr %32
}