; Function Attrs: nounwind uwtable
define hidden ptr @opj_thread_create(ptr noundef %0, ptr noundef %1) local_unnamed_addr #1 {
  %3 = alloca %union.pthread_attr_t, align 8
  call void @llvm.lifetime.start.p0(i64 56, ptr nonnull %3) #8
  %4 = tail call ptr @opj_malloc(i64 noundef 24) #8
  %.not = icmp eq ptr %4, null
  br i1 %.not, label %12, label %5

5:                                                ; preds = %2
  store ptr %0, ptr %4, align 8, !tbaa !3
  %6 = getelementptr inbounds nuw i8, ptr %4, i64 8
  store ptr %1, ptr %6, align 8, !tbaa !9
  %7 = call i32 @pthread_attr_init(ptr noundef nonnull %3) #8
  %8 = call i32 @pthread_attr_setdetachstate(ptr noundef nonnull %3, i32 noundef 0) #8
  %9 = getelementptr inbounds nuw i8, ptr %4, i64 16
  %10 = call i32 @pthread_create(ptr noundef nonnull %9, ptr noundef nonnull %3, ptr noundef nonnull @opj_thread_callback_adapter, ptr noundef nonnull %4) #8
  %.not11 = icmp eq i32 %10, 0
  br i1 %.not11, label %12, label %11

11:                                               ; preds = %5
  call void @opj_free(ptr noundef nonnull %4) #8
  br label %12

12:                                               ; preds = %5, %2, %11
  %.0 = phi ptr [ null, %11 ], [ null, %2 ], [ %4, %5 ]
  call void @llvm.lifetime.end.p0(i64 56, ptr nonnull %3) #8
  ret ptr %.0
}